target datalayout = "e-m:e-p270:32:32-p271:32:32-p272:64:64-i64:64-i128:128-f80:128-n8:16:32:64-S128"
target triple = "x86_64-pc-linux-gnu"

%"union.std::_Optional_payload_base<bool>::_Storage" = type { %"struct.std::_Optional_payload_base<bool>::_Empty_byte" }
%"struct.std::_Optional_payload_base<bool>::_Empty_byte" = type { i8 }
%"union.std::_Optional_payload_base<triggers::trigger_t::mhselect_interpretation>::_Storage" = type { %"struct.triggers::trigger_t::mhselect_interpretation" }
%"struct.triggers::trigger_t::mhselect_interpretation" = type <{ i32, i32, %"class.std::optional", [2 x i8] }>
%"class.std::optional" = type { %"struct.std::_Optional_base" }
%"struct.std::_Optional_base" = type { %"struct.std::_Optional_payload" }
%"struct.std::_Optional_payload" = type { %"struct.std::_Optional_payload_base" }
%"struct.std::_Optional_payload_base" = type { %"union.std::_Optional_payload_base<bool>::_Storage", i8 }
%"class.triggers::trigger_t" = type <{ ptr, i64, i8, i8, i8, i8, i8, [3 x i8], i32, i32, i32, i32, i32, [4 x i8] }>
%"class.std::optional.127" = type { %"struct.std::_Optional_base.128" }
%"struct.std::_Optional_base.128" = type { %"struct.std::_Optional_payload.130" }
%"struct.std::_Optional_payload.130" = type { %"struct.std::_Optional_payload_base.base.132", [3 x i8] }
%"struct.std::_Optional_payload_base.base.132" = type { %"union.std::_Optional_payload_base<triggers::trigger_t::mhselect_interpretation>::_Storage", i8 }
%"struct.std::_Optional_payload_base.131" = type { %"union.std::_Optional_payload_base<triggers::trigger_t::mhselect_interpretation>::_Storage", i8, [3 x i8] }

@_ZZNK8triggers9trigger_t18interpret_mhselectEbE12warlize_if_h = linkonce_odr global [8 x i32] [i32 0, i32 1, i32 2, i32 0, i32 4, i32 5, i32 6, i32 4], comdat, align 16
@_ZZNK8triggers9trigger_t18interpret_mhselectEbE12warlize_no_h = linkonce_odr global [8 x i32] [i32 0, i32 0, i32 0, i32 0, i32 4, i32 4, i32 4, i32 4], comdat, align 16

; Function Attrs: mustprogress nounwind uwtable
define linkonce_odr noundef nonnull align 4 dereferenceable(10) ptr @_ZNSt22_Optional_payload_baseIN8triggers9trigger_t23mhselect_interpretationEE6_M_getEv(ptr noundef nonnull align 4 dereferenceable(13) %0) #4 comdat align 2 {
  %2 = alloca ptr, align 8
  store ptr %0, ptr %2, align 8, !tbaa !282
  %3 = load ptr, ptr %2, align 8
  %4 = getelementptr inbounds nuw %"struct.std::_Optional_payload_base.131", ptr %3, i32 0, i32 0
  ret ptr %4
}

; Function Attrs: mustprogress nounwind uwtable
define linkonce_odr noundef nonnull align 4 dereferenceable(10) ptr @_ZNSt19_Optional_base_implIN8triggers9trigger_t23mhselect_interpretationESt14_Optional_baseIS2_Lb1ELb1EEE6_M_getEv(ptr noundef nonnull align 1 dereferenceable(1) %0) #4 comdat align 2 {
  %2 = alloca ptr, align 8
  store ptr %0, ptr %2, align 8, !tbaa !278
  %3 = load ptr, ptr %2, align 8
  br label %4

4:                                                ; preds = %1
  br label %5

5:                                                ; preds = %4
  br label %6

6:                                                ; preds = %5
  %7 = getelementptr inbounds nuw %"struct.std::_Optional_base.128", ptr %3, i32 0, i32 0
  %8 = call noundef nonnull align 4 dereferenceable(10) ptr @_ZNSt22_Optional_payload_baseIN8triggers9trigger_t23mhselect_interpretationEE6_M_getEv(ptr noundef nonnull align 4 dereferenceable(13) %7) #3
  ret ptr %8
}

; Function Attrs: mustprogress nounwind uwtable
define linkonce_odr noundef zeroext i1 @_ZNKSt19_Optional_base_implIN8triggers9trigger_t23mhselect_interpretationESt14_Optional_baseIS2_Lb1ELb1EEE13_M_is_engagedEv(ptr noundef nonnull align 1 dereferenceable(1) %0) #4 comdat align 2 {
  %2 = alloca ptr, align 8
  store ptr %0, ptr %2, align 8, !tbaa !278
  %3 = load ptr, ptr %2, align 8
  %4 = getelementptr inbounds nuw %"struct.std::_Optional_base.128", ptr %3, i32 0, i32 0
  %5 = getelementptr inbounds nuw %"struct.std::_Optional_payload_base.131", ptr %4, i32 0, i32 1
  %6 = load i8, ptr %5, align 4, !tbaa !280, !range !18, !noundef !19
  %7 = trunc i8 %6 to i1
  ret i1 %7
}

; Function Attrs: mustprogress uwtable
define linkonce_odr noundef nonnull align 4 dereferenceable(10) ptr @_ZNRSt8optionalIN8triggers9trigger_t23mhselect_interpretationEE5valueEv(ptr noundef nonnull align 4 dereferenceable(16) %0) #8 comdat align 2 {
  %2 = alloca ptr, align 8
  store ptr %0, ptr %2, align 8, !tbaa !276
  %3 = load ptr, ptr %2, align 8
  %4 = call noundef zeroext i1 @_ZNKSt19_Optional_base_implIN8triggers9trigger_t23mhselect_interpretationESt14_Optional_baseIS2_Lb1ELb1EEE13_M_is_engagedEv(ptr noundef nonnull align 1 dereferenceable(1) %3) #3
  br i1 %4, label %5, label %7

5:                                                ; preds = %1
  %6 = call noundef nonnull align 4 dereferenceable(10) ptr @_ZNSt19_Optional_base_implIN8triggers9trigger_t23mhselect_interpretationESt14_Optional_baseIS2_Lb1ELb1EEE6_M_getEv(ptr noundef nonnull align 1 dereferenceable(1) %3) #3
  ret ptr %6

7:                                                ; preds = %1
  call void @_ZSt27__throw_bad_optional_accessv() #22
  unreachable
}

; Function Attrs: mustprogress nounwind uwtable
define linkonce_odr { i64, i32 } @_ZNK8triggers9trigger_t18interpret_mhselectEb(ptr noundef nonnull align 8 dereferenceable(44) %0, i1 noundef zeroext %1) #4 comdat align 2 personality ptr @__gxx_personality_v0 {
  %3 = alloca %"struct.triggers::trigger_t::mhselect_interpretation", align 4
  %4 = alloca ptr, align 8
  %5 = alloca i8, align 1
  %6 = alloca i32, align 4
  %7 = alloca { i64, i32 }, align 8
  store ptr %0, ptr %4, align 8, !tbaa !3
  %8 = zext i1 %1 to i8
  store i8 %8, ptr %5, align 1, !tbaa !17
  %9 = load ptr, ptr %4, align 8
  call void @llvm.lifetime.start.p0(i64 4, ptr %6) #3
  %10 = load i8, ptr %5, align 1, !tbaa !17, !range !18, !noundef !19
  %11 = trunc i8 %10 to i1
  br i1 %11, label %12, label %18

12:                                               ; preds = %2
  %13 = getelementptr inbounds nuw %"class.triggers::trigger_t", ptr %9, i32 0, i32 11
  %14 = load i32, ptr %13, align 4, !tbaa !27
  %15 = zext i32 %14 to i64
  %16 = getelementptr inbounds nuw [8 x i32], ptr @_ZZNK8triggers9trigger_t18interpret_mhselectEbE12warlize_if_h, i64 0, i64 %15
  %17 = load i32, ptr %16, align 4, !tbaa !28
  br label %24

18:                                               ; preds = %2
  %19 = getelementptr inbounds nuw %"class.triggers::trigger_t", ptr %9, i32 0, i32 11
  %20 = load i32, ptr %19, align 4, !tbaa !27
  %21 = zext i32 %20 to i64
  %22 = getelementptr inbounds nuw [8 x i32], ptr @_ZZNK8triggers9trigger_t18interpret_mhselectEbE12warlize_no_h, i64 0, i64 %21
  %23 = load i32, ptr %22, align 4, !tbaa !28
  br label %24

24:                                               ; preds = %18, %12
  %25 = phi i32 [ %17, %12 ], [ %23, %18 ]
  store i32 %25, ptr %6, align 4, !tbaa !28
  %26 = load i32, ptr %6, align 4, !tbaa !28
  %27 = zext i32 %26 to i64
  %28 = getelementptr inbounds nuw [8 x %"class.std::optional.127"], ptr @_ZZNK8triggers9trigger_t18interpret_mhselectEbE5table, i64 0, i64 %27
  %29 = invoke noundef nonnull align 4 dereferenceable(10) ptr @_ZNRSt8optionalIN8triggers9trigger_t23mhselect_interpretationEE5valueEv(ptr noundef nonnull align 4 dereferenceable(16) %28)
          to label %30 unwind label %32

30:                                               ; preds = %24
  call void @llvm.memcpy.p0.p0.i64(ptr align 4 %3, ptr align 4 %29, i64 12, i1 false)
  call void @llvm.lifetime.end.p0(i64 4, ptr %6) #3
  call void @llvm.memcpy.p0.p0.i64(ptr align 8 %7, ptr align 4 %3, i64 12, i1 false)
  %31 = load { i64, i32 }, ptr %7, align 8
  ret { i64, i32 } %31

32:                                               ; preds = %24
  %33 = landingpad { ptr, i32 }
          catch ptr null
  %34 = extractvalue { ptr, i32 } %33, 0
  call void @__clang_call_terminate(ptr %34) #19
  unreachable
}

; Function Attrs: mustprogress nounwind uwtable
define noundef i32 @_ZNK8triggers9trigger_t17legalize_mhselectEb(ptr noundef nonnull align 8 dereferenceable(44) %0, i1 noundef zeroext %1) #4 align 2 {
  %3 = alloca ptr, align 8
  %4 = alloca i8, align 1
  %5 = alloca %"struct.triggers::trigger_t::mhselect_interpretation", align 4
  %6 = alloca { i64, i32 }, align 8
  store ptr %0, ptr %3, align 8, !tbaa !3
  %7 = zext i1 %1 to i8
  store i8 %7, ptr %4, align 1, !tbaa !17
  %8 = load ptr, ptr %3, align 8
  call void @llvm.lifetime.start.p0(i64 12, ptr %5) #3
  %9 = load i8, ptr %4, align 1, !tbaa !17, !range !18, !noundef !19
  %10 = trunc i8 %9 to i1
  %11 = call { i64, i32 } @_ZNK8triggers9trigger_t18interpret_mhselectEb(ptr noundef nonnull align 8 dereferenceable(44) %8, i1 noundef zeroext %10) #3
  store { i64, i32 } %11, ptr %6, align 8
  call void @llvm.memcpy.p0.p0.i64(ptr align 4 %5, ptr align 8 %6, i64 10, i1 false)
  %12 = getelementptr inbounds nuw %"struct.triggers::trigger_t::mhselect_interpretation", ptr %5, i32 0, i32 0
  %13 = load i32, ptr %12, align 4, !tbaa !20
  call void @llvm.lifetime.end.p0(i64 12, ptr %5) #3
  ret i32 %13
}