; Function Attrs: mustprogress nounwind uwtable
define noundef i32 @_ZNK8triggers9trigger_t17legalize_mhselectEb(ptr noundef nonnull readonly align 8 captures(none) dereferenceable(44) %0, i1 noundef zeroext %1) local_unnamed_addr #6 align 2 personality ptr @__gxx_personality_v0 {
  %3 = getelementptr inbounds nuw i8, ptr %0, i64 36
  %4 = load i32, ptr %3, align 4
  %5 = zext i32 %4 to i64
  %6 = getelementptr inbounds nuw [8 x i32], ptr @_ZZNK8triggers9trigger_t18interpret_mhselectEbE12warlize_if_h, i64 0, i64 %5
  %7 = getelementptr inbounds nuw [8 x i32], ptr @_ZZNK8triggers9trigger_t18interpret_mhselectEbE12warlize_no_h, i64 0, i64 %5
  %.in.i = select i1 %1, ptr %6, ptr %7
  %8 = load i32, ptr %.in.i, align 4, !tbaa !11
  %9 = zext i32 %8 to i64
  %10 = getelementptr inbounds nuw [8 x %"class.std::optional.127"], ptr @_ZZNK8triggers9trigger_t18interpret_mhselectEbE5table, i64 0, i64 %9
  %11 = getelementptr inbounds nuw i8, ptr %10, i64 12
  %12 = load i8, ptr %11, align 4, !tbaa !12, !range !14, !noundef !15
  %13 = trunc nuw i8 %12 to i1
  br i1 %13, label %_ZNK8triggers9trigger_t18interpret_mhselectEb.exit, label %14

14:                                               ; preds = %2
  invoke void @_ZSt27__throw_bad_optional_accessv() #20
          to label %.noexc.i unwind label %15

.noexc.i:                                         ; preds = %14
  unreachable

15:                                               ; preds = %14
  %16 = landingpad { ptr, i32 }
          catch ptr null
  %17 = extractvalue { ptr, i32 } %16, 0
  tail call void @__clang_call_terminate(ptr %17) #21
  unreachable

_ZNK8triggers9trigger_t18interpret_mhselectEb.exit: ; preds = %2
  %.sroa.02.0.copyload.i = load i64, ptr %10, align 16
  %.sroa.01.0.extract.trunc = trunc i64 %.sroa.02.0.copyload.i to i32
  ret i32 %.sroa.01.0.extract.trunc
}